target datalayout = "e-m:e-p270:32:32-p271:32:32-p272:64:64-i64:64-i128:128-f80:128-n8:16:32:64-S128"
target triple = "x86_64-pc-linux-gnu"

%"class.std::__cxx11::basic_string" = type { %"struct.std::__cxx11::basic_string<char>::_Alloc_hider", i64, %union.anon }
%"struct.std::__cxx11::basic_string<char>::_Alloc_hider" = type { ptr }
%union.anon = type { i64, [8 x i8] }
%"class.std::basic_string_view" = type { i64, ptr }
%"class.(anonymous namespace)::NotInProjectDir" = type { %"class.std::basic_string_view", %"class.std::basic_string_view" }
%class.cmCMakePath = type { %"class.std::filesystem::__cxx11::path" }
%"class.std::filesystem::__cxx11::path" = type { %"class.std::__cxx11::basic_string", %"struct.std::filesystem::__cxx11::path::_List" }
%"struct.std::filesystem::__cxx11::path::_List" = type { %"class.std::unique_ptr.856" }
%"class.std::unique_ptr.856" = type { %"struct.std::__uniq_ptr_data.857" }
%"struct.std::__uniq_ptr_data.857" = type { %"class.std::__uniq_ptr_impl.858" }
%"class.std::__uniq_ptr_impl.858" = type { %"class.std::tuple.859" }
%"class.std::tuple.859" = type { %"struct.std::_Tuple_impl.860" }
%"struct.std::_Tuple_impl.860" = type { %"struct.std::_Head_base.863" }
%"struct.std::_Head_base.863" = type { ptr }

; Function Attrs: mustprogress nounwind uwtable
define linkonce_odr dso_local noundef zeroext i1 @_ZNKSt10filesystem7__cxx114path11is_absoluteEv(ptr noundef nonnull align 8 dereferenceable(40) %0) #5 comdat align 2 {
  %2 = alloca ptr, align 8
  store ptr %0, ptr %2, align 8
  %3 = load ptr, ptr %2, align 8
  %4 = call noundef zeroext i1 @_ZNKSt10filesystem7__cxx114path18has_root_directoryEv(ptr noundef nonnull align 8 dereferenceable(40) %3) #3
  ret i1 %4
}

; Function Attrs: mustprogress nounwind uwtable
define linkonce_odr dso_local noundef zeroext i1 @_ZNKSt10filesystem7__cxx114path11is_relativeEv(ptr noundef nonnull align 8 dereferenceable(40) %0) #5 comdat align 2 {
  %2 = alloca ptr, align 8
  store ptr %0, ptr %2, align 8
  %3 = load ptr, ptr %2, align 8
  %4 = call noundef zeroext i1 @_ZNKSt10filesystem7__cxx114path11is_absoluteEv(ptr noundef nonnull align 8 dereferenceable(40) %3) #3
  %5 = xor i1 %4, true
  ret i1 %5
}

; Function Attrs: mustprogress nounwind uwtable
define linkonce_odr dso_local noundef zeroext i1 @_ZNK11cmCMakePath10IsRelativeEv(ptr noundef nonnull align 8 dereferenceable(40) %0) #5 comdat align 2 {
  %2 = alloca ptr, align 8
  store ptr %0, ptr %2, align 8
  %3 = load ptr, ptr %2, align 8
  %4 = getelementptr inbounds %class.cmCMakePath, ptr %3, i32 0, i32 0
  %5 = call noundef zeroext i1 @_ZNKSt10filesystem7__cxx114path11is_relativeEv(ptr noundef nonnull align 8 dereferenceable(40) %4) #3
  ret i1 %5
}

; Function Attrs: mustprogress uwtable
define internal noundef zeroext i1 @_ZNK12_GLOBAL__N_115NotInProjectDirclERKNSt7__cxx1112basic_stringIcSt11char_traitsIcESaIcEEE(ptr noundef nonnull align 8 dereferenceable(32) %0, ptr noundef nonnull align 8 dereferenceable(32) %1) #4 align 2 personality ptr @__gxx_personality_v0 {
  %3 = alloca i1, align 1
  %4 = alloca ptr, align 8
  %5 = alloca ptr, align 8
  %6 = alloca %class.cmCMakePath, align 8
  %7 = alloca %class.cmCMakePath, align 8
  %8 = alloca %"class.std::__cxx11::basic_string", align 8
  %9 = alloca ptr, align 8
  %10 = alloca i32, align 4
  %11 = alloca i32, align 4
  %12 = alloca %class.cmCMakePath, align 8
  %13 = alloca %"class.std::basic_string_view", align 8
  %14 = alloca %class.cmCMakePath, align 8
  %15 = alloca %"class.std::basic_string_view", align 8
  %16 = alloca i1, align 1
  store ptr %0, ptr %4, align 8
  store ptr %1, ptr %5, align 8
  %17 = load ptr, ptr %4, align 8
  %18 = load ptr, ptr %5, align 8
  call void @_ZNSt7__cxx1112basic_stringIcSt11char_traitsIcESaIcEEC1ERKS4_(ptr noundef nonnull align 8 dereferenceable(32) %8, ptr noundef nonnull align 8 dereferenceable(32) %18)
  invoke void @_ZN11cmCMakePathC2INSt7__cxx1112basic_stringIcSt11char_traitsIcESaIcEEERS_EET_NS_6formatE(ptr noundef nonnull align 8 dereferenceable(40) %7, ptr noundef %8, i8 noundef zeroext 1)
          to label %19 unwind label %24

19:                                               ; preds = %2
  invoke void @_ZNK11cmCMakePath6NormalEv(ptr dead_on_unwind writable sret(%class.cmCMakePath) align 8 %6, ptr noundef nonnull align 8 dereferenceable(40) %7)
          to label %20 unwind label %28

20:                                               ; preds = %19
  call void @_ZN11cmCMakePathD2Ev(ptr noundef nonnull align 8 dereferenceable(40) %7) #3
  call void @_ZNSt7__cxx1112basic_stringIcSt11char_traitsIcESaIcEED1Ev(ptr noundef nonnull align 8 dereferenceable(32) %8) #3
  %21 = invoke noundef zeroext i1 @_ZNK11cmCMakePath10IsRelativeEv(ptr noundef nonnull align 8 dereferenceable(40) %6)
          to label %22 unwind label %33

22:                                               ; preds = %20
  br i1 %21, label %23, label %37

23:                                               ; preds = %22
  store i1 false, ptr %3, align 1
  store i32 1, ptr %11, align 4
  br label %71

24:                                               ; preds = %2
  %25 = landingpad { ptr, i32 }
          cleanup
  %26 = extractvalue { ptr, i32 } %25, 0
  store ptr %26, ptr %9, align 8
  %27 = extractvalue { ptr, i32 } %25, 1
  store i32 %27, ptr %10, align 4
  br label %32

28:                                               ; preds = %19
  %29 = landingpad { ptr, i32 }
          cleanup
  %30 = extractvalue { ptr, i32 } %29, 0
  store ptr %30, ptr %9, align 8
  %31 = extractvalue { ptr, i32 } %29, 1
  store i32 %31, ptr %10, align 4
  call void @_ZN11cmCMakePathD2Ev(ptr noundef nonnull align 8 dereferenceable(40) %7) #3
  br label %32

32:                                               ; preds = %28, %24
  call void @_ZNSt7__cxx1112basic_stringIcSt11char_traitsIcESaIcEED1Ev(ptr noundef nonnull align 8 dereferenceable(32) %8) #3
  br label %74

33:                                               ; preds = %20
  %34 = landingpad { ptr, i32 }
          cleanup
  %35 = extractvalue { ptr, i32 } %34, 0
  store ptr %35, ptr %9, align 8
  %36 = extractvalue { ptr, i32 } %34, 1
  store i32 %36, ptr %10, align 4
  br label %73

37:                                               ; preds = %22
  %38 = getelementptr inbounds %"class.(anonymous namespace)::NotInProjectDir", ptr %17, i32 0, i32 0
  call void @llvm.memcpy.p0.p0.i64(ptr align 8 %13, ptr align 8 %38, i64 16, i1 false)
  %39 = getelementptr inbounds { i64, ptr }, ptr %13, i32 0, i32 0
  %40 = load i64, ptr %39, align 8
  %41 = getelementptr inbounds { i64, ptr }, ptr %13, i32 0, i32 1
  %42 = load ptr, ptr %41, align 8
  call void @_ZN11cmCMakePathC2ESt17basic_string_viewIcSt11char_traitsIcEENS_6formatE(ptr noundef nonnull align 8 dereferenceable(40) %12, i64 %40, ptr %42, i8 noundef zeroext 1) #3
  store i1 false, ptr %16, align 1
  %43 = invoke noundef zeroext i1 @_ZNK11cmCMakePath8IsPrefixERKS_(ptr noundef nonnull align 8 dereferenceable(40) %12, ptr noundef nonnull align 8 dereferenceable(40) %6)
          to label %44 unwind label %59

44:                                               ; preds = %37
  br i1 %43, label %53, label %45

45:                                               ; preds = %44
  %46 = getelementptr inbounds %"class.(anonymous namespace)::NotInProjectDir", ptr %17, i32 0, i32 1
  call void @llvm.memcpy.p0.p0.i64(ptr align 8 %15, ptr align 8 %46, i64 16, i1 false)
  %47 = getelementptr inbounds { i64, ptr }, ptr %15, i32 0, i32 0
  %48 = load i64, ptr %47, align 8
  %49 = getelementptr inbounds { i64, ptr }, ptr %15, i32 0, i32 1
  %50 = load ptr, ptr %49, align 8
  call void @_ZN11cmCMakePathC2ESt17basic_string_viewIcSt11char_traitsIcEENS_6formatE(ptr noundef nonnull align 8 dereferenceable(40) %14, i64 %48, ptr %50, i8 noundef zeroext 1) #3
  store i1 true, ptr %16, align 1
  %51 = invoke noundef zeroext i1 @_ZNK11cmCMakePath8IsPrefixERKS_(ptr noundef nonnull align 8 dereferenceable(40) %14, ptr noundef nonnull align 8 dereferenceable(40) %6)
          to label %52 unwind label %63

52:                                               ; preds = %45
  br label %53

53:                                               ; preds = %52, %44
  %54 = phi i1 [ true, %44 ], [ %51, %52 ]
  %55 = xor i1 %54, true
  store i1 %55, ptr %3, align 1
  %56 = load i1, ptr %16, align 1
  br i1 %56, label %57, label %58

57:                                               ; preds = %53
  call void @_ZN11cmCMakePathD2Ev(ptr noundef nonnull align 8 dereferenceable(40) %14) #3
  br label %58

58:                                               ; preds = %57, %53
  call void @_ZN11cmCMakePathD2Ev(ptr noundef nonnull align 8 dereferenceable(40) %12) #3
  store i32 1, ptr %11, align 4
  br label %71

59:                                               ; preds = %37
  %60 = landingpad { ptr, i32 }
          cleanup
  %61 = extractvalue { ptr, i32 } %60, 0
  store ptr %61, ptr %9, align 8
  %62 = extractvalue { ptr, i32 } %60, 1
  store i32 %62, ptr %10, align 4
  br label %70

63:                                               ; preds = %45
  %64 = landingpad { ptr, i32 }
          cleanup
  %65 = extractvalue { ptr, i32 } %64, 0
  store ptr %65, ptr %9, align 8
  %66 = extractvalue { ptr, i32 } %64, 1
  store i32 %66, ptr %10, align 4
  %67 = load i1, ptr %16, align 1
  br i1 %67, label %68, label %69

68:                                               ; preds = %63
  call void @_ZN11cmCMakePathD2Ev(ptr noundef nonnull align 8 dereferenceable(40) %14) #3
  br label %69

69:                                               ; preds = %68, %63
  br label %70

70:                                               ; preds = %69, %59
  call void @_ZN11cmCMakePathD2Ev(ptr noundef nonnull align 8 dereferenceable(40) %12) #3
  br label %73

71:                                               ; preds = %58, %23
  call void @_ZN11cmCMakePathD2Ev(ptr noundef nonnull align 8 dereferenceable(40) %6) #3
  %72 = load i1, ptr %3, align 1
  ret i1 %72

73:                                               ; preds = %70, %33
  call void @_ZN11cmCMakePathD2Ev(ptr noundef nonnull align 8 dereferenceable(40) %6) #3
  br label %74

74:                                               ; preds = %73, %32
  %75 = load ptr, ptr %9, align 8
  %76 = load i32, ptr %10, align 4
  %77 = insertvalue { ptr, i32 } poison, ptr %75, 0
  %78 = insertvalue { ptr, i32 } %77, i32 %76, 1
  resume { ptr, i32 } %78
}