; Function Attrs: mustprogress uwtable
define internal fastcc noundef zeroext i1 @_ZNK12_GLOBAL__N_115NotInProjectDirclERKNSt7__cxx1112basic_stringIcSt11char_traitsIcESaIcEEE(ptr nocapture noundef nonnull readonly align 8 dereferenceable(32) %0, ptr noundef nonnull align 8 dereferenceable(32) %1) unnamed_addr #3 align 2 personality ptr @__gxx_personality_v0 {
  %3 = alloca %class.cmCMakePath, align 8
  %4 = alloca %class.cmCMakePath, align 8
  %5 = alloca %"class.std::__cxx11::basic_string", align 8
  %6 = alloca %class.cmCMakePath, align 8
  %7 = alloca %class.cmCMakePath, align 8
  call void @_ZNSt7__cxx1112basic_stringIcSt11char_traitsIcESaIcEEC1ERKS4_(ptr noundef nonnull align 8 dereferenceable(32) %5, ptr noundef nonnull align 8 dereferenceable(32) %1)
  invoke void @_ZN11cmCMakePathC2INSt7__cxx1112basic_stringIcSt11char_traitsIcESaIcEEERS_EET_NS_6formatE(ptr noundef nonnull align 8 dereferenceable(40) %4, ptr noundef nonnull %5, i8 noundef zeroext 1)
          to label %8 unwind label %14

8:                                                ; preds = %2
  invoke void @_ZNK11cmCMakePath6NormalEv(ptr dead_on_unwind nonnull writable sret(%class.cmCMakePath) align 8 %3, ptr noundef nonnull align 8 dereferenceable(40) %4)
          to label %9 unwind label %16

9:                                                ; preds = %8
  %10 = getelementptr inbounds i8, ptr %4, i64 32
  %11 = load ptr, ptr %10, align 8
  %.not.i.i.i.i = icmp eq ptr %11, null
  br i1 %.not.i.i.i.i, label %_ZN11cmCMakePathD2Ev.exit, label %12

12:                                               ; preds = %9
  call void @_ZNKSt10filesystem7__cxx114path5_List13_Impl_deleterclEPNS2_5_ImplE(ptr noundef nonnull align 1 dereferenceable(1) %10, ptr noundef nonnull %11) #20
  br label %_ZN11cmCMakePathD2Ev.exit

_ZN11cmCMakePathD2Ev.exit:                        ; preds = %9, %12
  store ptr null, ptr %10, align 8
  call void @_ZNSt7__cxx1112basic_stringIcSt11char_traitsIcESaIcEED1Ev(ptr noundef nonnull align 8 dereferenceable(32) %4) #20
  call void @_ZNSt7__cxx1112basic_stringIcSt11char_traitsIcESaIcEED1Ev(ptr noundef nonnull align 8 dereferenceable(32) %5) #20
  %13 = call noundef zeroext i1 @_ZNKSt10filesystem7__cxx114path18has_root_directoryEv(ptr noundef nonnull align 8 dereferenceable(40) %3) #20
  br i1 %13, label %19, label %39

14:                                               ; preds = %2
  %15 = landingpad { ptr, i32 }
          cleanup
  br label %18

16:                                               ; preds = %8
  %17 = landingpad { ptr, i32 }
          cleanup
  call void @_ZN11cmCMakePathD2Ev(ptr noundef nonnull align 8 dereferenceable(40) %4) #20
  br label %18

18:                                               ; preds = %16, %14
  %.pn = phi { ptr, i32 } [ %17, %16 ], [ %15, %14 ]
  call void @_ZNSt7__cxx1112basic_stringIcSt11char_traitsIcESaIcEED1Ev(ptr noundef nonnull align 8 dereferenceable(32) %5) #20
  br label %43

19:                                               ; preds = %_ZN11cmCMakePathD2Ev.exit
  %.sroa.02.0.copyload = load i64, ptr %0, align 8
  %.sroa.23.0..sroa_idx = getelementptr inbounds i8, ptr %0, i64 8
  %.sroa.23.0.copyload = load ptr, ptr %.sroa.23.0..sroa_idx, align 8
  call void @_ZN11cmCMakePathC2ESt17basic_string_viewIcSt11char_traitsIcEENS_6formatE(ptr noundef nonnull align 8 dereferenceable(40) %6, i64 %.sroa.02.0.copyload, ptr %.sroa.23.0.copyload, i8 noundef zeroext 1) #20
  %20 = invoke noundef zeroext i1 @_ZNK11cmCMakePath8IsPrefixERKS_(ptr noundef nonnull align 8 dereferenceable(40) %6, ptr noundef nonnull align 8 dereferenceable(40) %3)
          to label %21 unwind label %34

21:                                               ; preds = %19
  br i1 %20, label %.thread, label %22

22:                                               ; preds = %21
  %23 = getelementptr inbounds i8, ptr %0, i64 16
  %.sroa.0.0.copyload = load i64, ptr %23, align 8
  %.sroa.2.0..sroa_idx = getelementptr inbounds i8, ptr %0, i64 24
  %.sroa.2.0.copyload = load ptr, ptr %.sroa.2.0..sroa_idx, align 8
  call void @_ZN11cmCMakePathC2ESt17basic_string_viewIcSt11char_traitsIcEENS_6formatE(ptr noundef nonnull align 8 dereferenceable(40) %7, i64 %.sroa.0.0.copyload, ptr %.sroa.2.0.copyload, i8 noundef zeroext 1) #20
  %24 = invoke noundef zeroext i1 @_ZNK11cmCMakePath8IsPrefixERKS_(ptr noundef nonnull align 8 dereferenceable(40) %7, ptr noundef nonnull align 8 dereferenceable(40) %3)
          to label %25 unwind label %36

25:                                               ; preds = %22
  %26 = xor i1 %24, true
  %27 = getelementptr inbounds i8, ptr %7, i64 32
  %28 = load ptr, ptr %27, align 8
  %.not.i.i.i.i17 = icmp eq ptr %28, null
  br i1 %.not.i.i.i.i17, label %_ZN11cmCMakePathD2Ev.exit18, label %29

29:                                               ; preds = %25
  call void @_ZNKSt10filesystem7__cxx114path5_List13_Impl_deleterclEPNS2_5_ImplE(ptr noundef nonnull align 1 dereferenceable(1) %27, ptr noundef nonnull %28) #20
  br label %_ZN11cmCMakePathD2Ev.exit18

_ZN11cmCMakePathD2Ev.exit18:                      ; preds = %25, %29
  store ptr null, ptr %27, align 8
  call void @_ZNSt7__cxx1112basic_stringIcSt11char_traitsIcESaIcEED1Ev(ptr noundef nonnull align 8 dereferenceable(32) %7) #20
  br label %.thread

.thread:                                          ; preds = %21, %_ZN11cmCMakePathD2Ev.exit18
  %30 = phi i1 [ %26, %_ZN11cmCMakePathD2Ev.exit18 ], [ false, %21 ]
  %31 = getelementptr inbounds i8, ptr %6, i64 32
  %32 = load ptr, ptr %31, align 8
  %.not.i.i.i.i19 = icmp eq ptr %32, null
  br i1 %.not.i.i.i.i19, label %_ZN11cmCMakePathD2Ev.exit20, label %33

33:                                               ; preds = %.thread
  call void @_ZNKSt10filesystem7__cxx114path5_List13_Impl_deleterclEPNS2_5_ImplE(ptr noundef nonnull align 1 dereferenceable(1) %31, ptr noundef nonnull %32) #20
  br label %_ZN11cmCMakePathD2Ev.exit20

_ZN11cmCMakePathD2Ev.exit20:                      ; preds = %.thread, %33
  store ptr null, ptr %31, align 8
  call void @_ZNSt7__cxx1112basic_stringIcSt11char_traitsIcESaIcEED1Ev(ptr noundef nonnull align 8 dereferenceable(32) %6) #20
  br label %39

34:                                               ; preds = %19
  %35 = landingpad { ptr, i32 }
          cleanup
  br label %38

36:                                               ; preds = %22
  %37 = landingpad { ptr, i32 }
          cleanup
  call void @_ZN11cmCMakePathD2Ev(ptr noundef nonnull align 8 dereferenceable(40) %7) #20
  br label %38

38:                                               ; preds = %36, %34
  %.pn14 = phi { ptr, i32 } [ %37, %36 ], [ %35, %34 ]
  call void @_ZN11cmCMakePathD2Ev(ptr noundef nonnull align 8 dereferenceable(40) %6) #20
  call void @_ZN11cmCMakePathD2Ev(ptr noundef nonnull align 8 dereferenceable(40) %3) #20
  br label %43

39:                                               ; preds = %_ZN11cmCMakePathD2Ev.exit, %_ZN11cmCMakePathD2Ev.exit20
  %.08 = phi i1 [ %30, %_ZN11cmCMakePathD2Ev.exit20 ], [ false, %_ZN11cmCMakePathD2Ev.exit ]
  %40 = getelementptr inbounds i8, ptr %3, i64 32
  %41 = load ptr, ptr %40, align 8
  %.not.i.i.i.i21 = icmp eq ptr %41, null
  br i1 %.not.i.i.i.i21, label %_ZN11cmCMakePathD2Ev.exit22, label %42

42:                                               ; preds = %39
  call void @_ZNKSt10filesystem7__cxx114path5_List13_Impl_deleterclEPNS2_5_ImplE(ptr noundef nonnull align 1 dereferenceable(1) %40, ptr noundef nonnull %41) #20
  br label %_ZN11cmCMakePathD2Ev.exit22

_ZN11cmCMakePathD2Ev.exit22:                      ; preds = %39, %42
  store ptr null, ptr %40, align 8
  call void @_ZNSt7__cxx1112basic_stringIcSt11char_traitsIcESaIcEED1Ev(ptr noundef nonnull align 8 dereferenceable(32) %3) #20
  ret i1 %.08

43:                                               ; preds = %38, %18
  %.pn14.pn = phi { ptr, i32 } [ %.pn14, %38 ], [ %.pn, %18 ]
  resume { ptr, i32 } %.pn14.pn
}